target datalayout = "e-m:e-p270:32:32-p271:32:32-p272:64:64-i64:64-i128:128-f80:128-n8:16:32:64-S128"
target triple = "x86_64-pc-linux-gnu"

%"class.llvm::IntEqClasses" = type <{ %"class.llvm::SmallVector", i32, [4 x i8] }>
%"class.llvm::SmallVector" = type { %"class.llvm::SmallVectorImpl", %"struct.llvm::SmallVectorStorage" }
%"class.llvm::SmallVectorImpl" = type { %"class.llvm::SmallVectorTemplateBase" }
%"class.llvm::SmallVectorTemplateBase" = type { %"class.llvm::SmallVectorTemplateCommon" }
%"class.llvm::SmallVectorTemplateCommon" = type { %"class.llvm::SmallVectorBase" }
%"class.llvm::SmallVectorBase" = type { ptr, i32, i32 }
%"struct.llvm::SmallVectorStorage" = type { [32 x i8] }

; Function Attrs: mustprogress nounwind uwtable
define linkonce_odr hidden noundef ptr @_ZN4llvm25SmallVectorTemplateCommonIjvE5beginEv(ptr noundef nonnull align 8 dereferenceable(16) %0) #0 comdat align 2 {
  %2 = alloca ptr, align 8
  store ptr %0, ptr %2, align 8
  %3 = load ptr, ptr %2, align 8
  %4 = getelementptr inbounds nuw %"class.llvm::SmallVectorBase", ptr %3, i32 0, i32 0
  %5 = load ptr, ptr %4, align 8
  ret ptr %5
}

; Function Attrs: mustprogress nounwind uwtable
define linkonce_odr hidden noundef nonnull align 4 dereferenceable(4) ptr @_ZN4llvm25SmallVectorTemplateCommonIjvEixEm(ptr noundef nonnull align 8 dereferenceable(16) %0, i64 noundef %1) #0 comdat align 2 {
  %3 = alloca ptr, align 8
  %4 = alloca i64, align 8
  store ptr %0, ptr %3, align 8
  store i64 %1, ptr %4, align 8
  %5 = load ptr, ptr %3, align 8
  %6 = call noundef ptr @_ZN4llvm25SmallVectorTemplateCommonIjvE5beginEv(ptr noundef nonnull align 8 dereferenceable(16) %5)
  %7 = load i64, ptr %4, align 8
  %8 = getelementptr inbounds i32, ptr %6, i64 %7
  ret ptr %8
}

; Function Attrs: mustprogress nounwind uwtable
define dso_local noundef i32 @_ZN4llvm12IntEqClasses4joinEjj(ptr noundef nonnull align 8 dereferenceable(52) %0, i32 noundef %1, i32 noundef %2) #0 align 2 {
  %4 = alloca ptr, align 8
  %5 = alloca i32, align 4
  %6 = alloca i32, align 4
  %7 = alloca i32, align 4
  %8 = alloca i32, align 4
  store ptr %0, ptr %4, align 8
  store i32 %1, ptr %5, align 4
  store i32 %2, ptr %6, align 4
  %9 = load ptr, ptr %4, align 8
  %10 = getelementptr inbounds nuw %"class.llvm::IntEqClasses", ptr %9, i32 0, i32 0
  %11 = load i32, ptr %5, align 4
  %12 = zext i32 %11 to i64
  %13 = call noundef nonnull align 4 dereferenceable(4) ptr @_ZN4llvm25SmallVectorTemplateCommonIjvEixEm(ptr noundef nonnull align 8 dereferenceable(16) %10, i64 noundef %12)
  %14 = load i32, ptr %13, align 4
  store i32 %14, ptr %7, align 4
  %15 = getelementptr inbounds nuw %"class.llvm::IntEqClasses", ptr %9, i32 0, i32 0
  %16 = load i32, ptr %6, align 4
  %17 = zext i32 %16 to i64
  %18 = call noundef nonnull align 4 dereferenceable(4) ptr @_ZN4llvm25SmallVectorTemplateCommonIjvEixEm(ptr noundef nonnull align 8 dereferenceable(16) %15, i64 noundef %17)
  %19 = load i32, ptr %18, align 4
  store i32 %19, ptr %8, align 4
  br label %20

20:                                               ; preds = %52, %3
  %21 = load i32, ptr %7, align 4
  %22 = load i32, ptr %8, align 4
  %23 = icmp ne i32 %21, %22
  br i1 %23, label %24, label %53

24:                                               ; preds = %20
  %25 = load i32, ptr %7, align 4
  %26 = load i32, ptr %8, align 4
  %27 = icmp ult i32 %25, %26
  br i1 %27, label %28, label %40

28:                                               ; preds = %24
  %29 = load i32, ptr %7, align 4
  %30 = getelementptr inbounds nuw %"class.llvm::IntEqClasses", ptr %9, i32 0, i32 0
  %31 = load i32, ptr %6, align 4
  %32 = zext i32 %31 to i64
  %33 = call noundef nonnull align 4 dereferenceable(4) ptr @_ZN4llvm25SmallVectorTemplateCommonIjvEixEm(ptr noundef nonnull align 8 dereferenceable(16) %30, i64 noundef %32)
  store i32 %29, ptr %33, align 4
  %34 = load i32, ptr %8, align 4
  store i32 %34, ptr %6, align 4
  %35 = getelementptr inbounds nuw %"class.llvm::IntEqClasses", ptr %9, i32 0, i32 0
  %36 = load i32, ptr %6, align 4
  %37 = zext i32 %36 to i64
  %38 = call noundef nonnull align 4 dereferenceable(4) ptr @_ZN4llvm25SmallVectorTemplateCommonIjvEixEm(ptr noundef nonnull align 8 dereferenceable(16) %35, i64 noundef %37)
  %39 = load i32, ptr %38, align 4
  store i32 %39, ptr %8, align 4
  br label %52

40:                                               ; preds = %24
  %41 = load i32, ptr %8, align 4
  %42 = getelementptr inbounds nuw %"class.llvm::IntEqClasses", ptr %9, i32 0, i32 0
  %43 = load i32, ptr %5, align 4
  %44 = zext i32 %43 to i64
  %45 = call noundef nonnull align 4 dereferenceable(4) ptr @_ZN4llvm25SmallVectorTemplateCommonIjvEixEm(ptr noundef nonnull align 8 dereferenceable(16) %42, i64 noundef %44)
  store i32 %41, ptr %45, align 4
  %46 = load i32, ptr %7, align 4
  store i32 %46, ptr %5, align 4
  %47 = getelementptr inbounds nuw %"class.llvm::IntEqClasses", ptr %9, i32 0, i32 0
  %48 = load i32, ptr %5, align 4
  %49 = zext i32 %48 to i64
  %50 = call noundef nonnull align 4 dereferenceable(4) ptr @_ZN4llvm25SmallVectorTemplateCommonIjvEixEm(ptr noundef nonnull align 8 dereferenceable(16) %47, i64 noundef %49)
  %51 = load i32, ptr %50, align 4
  store i32 %51, ptr %7, align 4
  br label %52

52:                                               ; preds = %40, %28
  br label %20, !llvm.loop !6

53:                                               ; preds = %20
  %54 = load i32, ptr %7, align 4
  ret i32 %54
}