; Function Attrs: mustprogress nofree norecurse nosync nounwind memory(readwrite, inaccessiblemem: none) uwtable
define dso_local noundef i32 @_ZN4llvm12IntEqClasses4joinEjj(ptr noundef nonnull readonly align 8 captures(none) dereferenceable(52) %0, i32 noundef %1, i32 noundef %2) local_unnamed_addr #2 align 2 {
  %4 = zext i32 %1 to i64
  %5 = load ptr, ptr %0, align 8
  %6 = getelementptr inbounds nuw i32, ptr %5, i64 %4
  %7 = load i32, ptr %6, align 4
  %8 = zext i32 %2 to i64
  %9 = getelementptr inbounds nuw i32, ptr %5, i64 %8
  %10 = load i32, ptr %9, align 4
  %.not21 = icmp eq i32 %7, %10
  br i1 %.not21, label %._crit_edge, label %.lr.ph

.lr.ph:                                           ; preds = %3, %27
  %11 = phi ptr [ %28, %27 ], [ %5, %3 ]
  %.025 = phi i32 [ %.1, %27 ], [ %10, %3 ]
  %.01524 = phi i32 [ %.116, %27 ], [ %7, %3 ]
  %.01723 = phi i32 [ %.118, %27 ], [ %2, %3 ]
  %.01922 = phi i32 [ %.120, %27 ], [ %1, %3 ]
  %12 = icmp ult i32 %.01524, %.025
  br i1 %12, label %13, label %20

13:                                               ; preds = %.lr.ph
  %14 = zext i32 %.01723 to i64
  %15 = getelementptr inbounds nuw i32, ptr %11, i64 %14
  store i32 %.01524, ptr %15, align 4
  %16 = zext i32 %.025 to i64
  %17 = load ptr, ptr %0, align 8
  %18 = getelementptr inbounds nuw i32, ptr %17, i64 %16
  %19 = load i32, ptr %18, align 4
  br label %27

20:                                               ; preds = %.lr.ph
  %21 = zext i32 %.01922 to i64
  %22 = getelementptr inbounds nuw i32, ptr %11, i64 %21
  store i32 %.025, ptr %22, align 4
  %23 = zext i32 %.01524 to i64
  %24 = load ptr, ptr %0, align 8
  %25 = getelementptr inbounds nuw i32, ptr %24, i64 %23
  %26 = load i32, ptr %25, align 4
  br label %27

27:                                               ; preds = %20, %13
  %28 = phi ptr [ %17, %13 ], [ %24, %20 ]
  %.120 = phi i32 [ %.01922, %13 ], [ %.01524, %20 ]
  %.118 = phi i32 [ %.025, %13 ], [ %.01723, %20 ]
  %.116 = phi i32 [ %.01524, %13 ], [ %26, %20 ]
  %.1 = phi i32 [ %19, %13 ], [ %.025, %20 ]
  %.not = icmp eq i32 %.116, %.1
  br i1 %.not, label %._crit_edge, label %.lr.ph, !llvm.loop !6

._crit_edge:                                      ; preds = %27, %3
  %.015.lcssa = phi i32 [ %7, %3 ], [ %.116, %27 ]
  ret i32 %.015.lcssa
}